target datalayout = "e-m:e-p270:32:32-p271:32:32-p272:64:64-i64:64-i128:128-f80:128-n8:16:32:64-S128"
target triple = "x86_64-unknown-linux-gnu"

%struct.mz_zip_archive = type { i64, i64, i32, i32, i32, i32, i64, ptr, ptr, ptr, ptr, ptr, ptr, ptr, ptr, ptr }
%struct.mz_zip_internal_state_tag = type { %struct.mz_zip_array, %struct.mz_zip_array, %struct.mz_zip_array, i32, i32, i32, ptr, i64, ptr, i64, i64 }
%struct.mz_zip_array = type { ptr, i64, i64, i32 }

; Function Attrs: nounwind uwtable
define hidden i32 @mz_zip_writer_finalize_heap_archive(ptr noundef %pZip, ptr noundef %pBuf, ptr noundef %pSize) #0 {
entry:
  %retval = alloca i32, align 4
  %pZip.addr = alloca ptr, align 8
  %pBuf.addr = alloca ptr, align 8
  %pSize.addr = alloca ptr, align 8
  store ptr %pZip, ptr %pZip.addr, align 8
  store ptr %pBuf, ptr %pBuf.addr, align 8
  store ptr %pSize, ptr %pSize.addr, align 8
  %0 = load ptr, ptr %pZip.addr, align 8
  %tobool = icmp ne ptr %0, null
  br i1 %tobool, label %lor.lhs.false, label %if.then

lor.lhs.false:                                    ; preds = %entry
  %1 = load ptr, ptr %pZip.addr, align 8
  %m_pState = getelementptr inbounds %struct.mz_zip_archive, ptr %1, i32 0, i32 15
  %2 = load ptr, ptr %m_pState, align 8
  %tobool1 = icmp ne ptr %2, null
  br i1 %tobool1, label %lor.lhs.false2, label %if.then

lor.lhs.false2:                                   ; preds = %lor.lhs.false
  %3 = load ptr, ptr %pBuf.addr, align 8
  %tobool3 = icmp ne ptr %3, null
  br i1 %tobool3, label %lor.lhs.false4, label %if.then

lor.lhs.false4:                                   ; preds = %lor.lhs.false2
  %4 = load ptr, ptr %pSize.addr, align 8
  %tobool5 = icmp ne ptr %4, null
  br i1 %tobool5, label %if.end, label %if.then

if.then:                                          ; preds = %lor.lhs.false4, %lor.lhs.false2, %lor.lhs.false, %entry
  store i32 0, ptr %retval, align 4
  br label %return

if.end:                                           ; preds = %lor.lhs.false4
  %5 = load ptr, ptr %pZip.addr, align 8
  %m_pWrite = getelementptr inbounds %struct.mz_zip_archive, ptr %5, i32 0, i32 12
  %6 = load ptr, ptr %m_pWrite, align 8
  %cmp = icmp ne ptr %6, @mz_zip_heap_write_func
  br i1 %cmp, label %if.then6, label %if.end7

if.then6:                                         ; preds = %if.end
  store i32 0, ptr %retval, align 4
  br label %return

if.end7:                                          ; preds = %if.end
  %7 = load ptr, ptr %pZip.addr, align 8
  %call = call i32 @mz_zip_writer_finalize_archive(ptr noundef %7)
  %tobool8 = icmp ne i32 %call, 0
  br i1 %tobool8, label %if.end10, label %if.then9

if.then9:                                         ; preds = %if.end7
  store i32 0, ptr %retval, align 4
  br label %return

if.end10:                                         ; preds = %if.end7
  %8 = load ptr, ptr %pZip.addr, align 8
  %m_pState11 = getelementptr inbounds %struct.mz_zip_archive, ptr %8, i32 0, i32 15
  %9 = load ptr, ptr %m_pState11, align 8
  %m_pMem = getelementptr inbounds %struct.mz_zip_internal_state_tag, ptr %9, i32 0, i32 8
  %10 = load ptr, ptr %m_pMem, align 8
  %11 = load ptr, ptr %pBuf.addr, align 8
  store ptr %10, ptr %11, align 8
  %12 = load ptr, ptr %pZip.addr, align 8
  %m_pState12 = getelementptr inbounds %struct.mz_zip_archive, ptr %12, i32 0, i32 15
  %13 = load ptr, ptr %m_pState12, align 8
  %m_mem_size = getelementptr inbounds %struct.mz_zip_internal_state_tag, ptr %13, i32 0, i32 9
  %14 = load i64, ptr %m_mem_size, align 8
  %15 = load ptr, ptr %pSize.addr, align 8
  store i64 %14, ptr %15, align 8
  %16 = load ptr, ptr %pZip.addr, align 8
  %m_pState13 = getelementptr inbounds %struct.mz_zip_archive, ptr %16, i32 0, i32 15
  %17 = load ptr, ptr %m_pState13, align 8
  %m_pMem14 = getelementptr inbounds %struct.mz_zip_internal_state_tag, ptr %17, i32 0, i32 8
  store ptr null, ptr %m_pMem14, align 8
  %18 = load ptr, ptr %pZip.addr, align 8
  %m_pState15 = getelementptr inbounds %struct.mz_zip_archive, ptr %18, i32 0, i32 15
  %19 = load ptr, ptr %m_pState15, align 8
  %m_mem_capacity = getelementptr inbounds %struct.mz_zip_internal_state_tag, ptr %19, i32 0, i32 10
  store i64 0, ptr %m_mem_capacity, align 8
  %20 = load ptr, ptr %pZip.addr, align 8
  %m_pState16 = getelementptr inbounds %struct.mz_zip_archive, ptr %20, i32 0, i32 15
  %21 = load ptr, ptr %m_pState16, align 8
  %m_mem_size17 = getelementptr inbounds %struct.mz_zip_internal_state_tag, ptr %21, i32 0, i32 9
  store i64 0, ptr %m_mem_size17, align 8
  store i32 1, ptr %retval, align 4
  br label %return

return:                                           ; preds = %if.end10, %if.then9, %if.then6, %if.then
  %22 = load i32, ptr %retval, align 4
  ret i32 %22
}