; Function Attrs: nounwind uwtable
define hidden range(i32 0, 2) i32 @mz_zip_writer_finalize_heap_archive(ptr noundef %pZip, ptr noundef writeonly %pBuf, ptr noundef writeonly %pSize) local_unnamed_addr #4 {
entry:
  %tobool.not = icmp eq ptr %pZip, null
  br i1 %tobool.not, label %return, label %lor.lhs.false

lor.lhs.false:                                    ; preds = %entry
  %m_pState = getelementptr inbounds nuw i8, ptr %pZip, i64 104
  %0 = load ptr, ptr %m_pState, align 8
  %tobool1 = icmp ne ptr %0, null
  %tobool3 = icmp ne ptr %pBuf, null
  %or.cond = and i1 %tobool3, %tobool1
  %tobool5 = icmp ne ptr %pSize, null
  %or.cond1 = and i1 %tobool5, %or.cond
  br i1 %or.cond1, label %if.end, label %return

if.end:                                           ; preds = %lor.lhs.false
  %m_pWrite = getelementptr inbounds nuw i8, ptr %pZip, i64 80
  %1 = load ptr, ptr %m_pWrite, align 8
  %cmp.not = icmp eq ptr %1, @mz_zip_heap_write_func
  br i1 %cmp.not, label %if.end7, label %return

if.end7:                                          ; preds = %if.end
  %call = tail call i32 @mz_zip_writer_finalize_archive(ptr noundef nonnull %pZip)
  %tobool8.not = icmp eq i32 %call, 0
  br i1 %tobool8.not, label %return, label %if.end10

if.end10:                                         ; preds = %if.end7
  %2 = load ptr, ptr %m_pState, align 8
  %m_pMem = getelementptr inbounds nuw i8, ptr %2, i64 128
  %3 = load ptr, ptr %m_pMem, align 8
  store ptr %3, ptr %pBuf, align 8
  %4 = load ptr, ptr %m_pState, align 8
  %m_mem_size = getelementptr inbounds nuw i8, ptr %4, i64 136
  %5 = load i64, ptr %m_mem_size, align 8
  store i64 %5, ptr %pSize, align 8
  %6 = load ptr, ptr %m_pState, align 8
  %m_pMem14 = getelementptr inbounds nuw i8, ptr %6, i64 128
  store ptr null, ptr %m_pMem14, align 8
  %7 = load ptr, ptr %m_pState, align 8
  %m_mem_capacity = getelementptr inbounds nuw i8, ptr %7, i64 144
  store i64 0, ptr %m_mem_capacity, align 8
  %8 = load ptr, ptr %m_pState, align 8
  %m_mem_size17 = getelementptr inbounds nuw i8, ptr %8, i64 136
  store i64 0, ptr %m_mem_size17, align 8
  br label %return

return:                                           ; preds = %if.end7, %if.end, %entry, %lor.lhs.false, %if.end10
  %retval.0 = phi i32 [ 1, %if.end10 ], [ 0, %lor.lhs.false ], [ 0, %entry ], [ 0, %if.end ], [ 0, %if.end7 ]
  ret i32 %retval.0
}